; Function Attrs: nounwind uwtable
define range(i32 -2147483648, 1) i32 @av_image_fill_linesizes(ptr noundef writeonly captures(none) initializes((0, 16)) %0, i32 noundef %1, i32 noundef %2) local_unnamed_addr #3 {
  %4 = alloca [4 x i32], align 16
  %5 = alloca [4 x i32], align 16
  %6 = tail call ptr @av_pix_fmt_desc_get(i32 noundef %1) #11
  call void @llvm.lifetime.start.p0(i64 16, ptr nonnull %4) #11
  call void @llvm.lifetime.start.p0(i64 16, ptr nonnull %5) #11
  tail call void @llvm.memset.p0.i64(ptr noundef nonnull align 4 dereferenceable(16) %0, i8 0, i64 16, i1 false)
  %.not = icmp eq ptr %6, null
  br i1 %.not, label %image_get_linesize.exit.thread, label %7

7:                                                ; preds = %3
  %8 = getelementptr inbounds nuw i8, ptr %6, i64 16
  %9 = load i64, ptr %8, align 8, !tbaa !13
  %.fr24 = freeze i64 %9
  %10 = and i64 %.fr24, 8
  %.not19 = icmp eq i64 %10, 0
  br i1 %.not19, label %11, label %image_get_linesize.exit.thread

11:                                               ; preds = %7
  call void @llvm.memset.p0.i64(ptr noundef nonnull align 16 dereferenceable(16) %4, i8 0, i64 16, i1 false)
  call void @llvm.memset.p0.i64(ptr noundef nonnull align 16 dereferenceable(16) %5, i8 0, i64 16, i1 false)
  %12 = getelementptr inbounds nuw i8, ptr %6, i64 24
  br label %.split.i

.split.i:                                         ; preds = %24, %11
  %indvars.iv.i = phi i64 [ 0, %11 ], [ %indvars.iv.next.i, %24 ]
  %13 = getelementptr inbounds nuw [4 x %struct.AVComponentDescriptor], ptr %12, i64 0, i64 %indvars.iv.i
  %14 = getelementptr inbounds nuw i8, ptr %13, i64 4
  %15 = load i32, ptr %14, align 4, !tbaa !4
  %16 = load i32, ptr %13, align 4, !tbaa !9
  %17 = sext i32 %16 to i64
  %18 = getelementptr inbounds i32, ptr %4, i64 %17
  %19 = load i32, ptr %18, align 4, !tbaa !10
  %20 = icmp sgt i32 %15, %19
  br i1 %20, label %21, label %24

21:                                               ; preds = %.split.i
  store i32 %15, ptr %18, align 4, !tbaa !10
  %22 = getelementptr inbounds i32, ptr %5, i64 %17
  %23 = trunc nuw nsw i64 %indvars.iv.i to i32
  store i32 %23, ptr %22, align 4, !tbaa !10
  br label %24

24:                                               ; preds = %21, %.split.i
  %indvars.iv.next.i = add nuw nsw i64 %indvars.iv.i, 1
  %exitcond.not.i = icmp eq i64 %indvars.iv.next.i, 4
  br i1 %exitcond.not.i, label %av_image_fill_max_pixsteps.exit.preheader, label %.split.i, !llvm.loop !11

av_image_fill_max_pixsteps.exit.preheader:        ; preds = %24
  %25 = icmp slt i32 %2, 0
  %26 = getelementptr inbounds nuw i8, ptr %6, i64 9
  %27 = add nsw i32 %2, -1
  br i1 %25, label %image_get_linesize.exit.thread, label %av_image_fill_max_pixsteps.exit.preheader.split

av_image_fill_max_pixsteps.exit.preheader.split:  ; preds = %av_image_fill_max_pixsteps.exit.preheader
  %28 = and i64 %.fr24, 4
  %.not21.i = icmp eq i64 %28, 0
  br i1 %.not21.i, label %av_image_fill_max_pixsteps.exit.preheader.split.split.us, label %av_image_fill_max_pixsteps.exit.preheader.split.split

av_image_fill_max_pixsteps.exit.preheader.split.split.us: ; preds = %av_image_fill_max_pixsteps.exit.preheader.split, %av_image_fill_max_pixsteps.exit.us
  %indvars.iv28 = phi i64 [ %indvars.iv.next29, %av_image_fill_max_pixsteps.exit.us ], [ 0, %av_image_fill_max_pixsteps.exit.preheader.split ]
  %29 = getelementptr inbounds nuw [4 x i32], ptr %4, i64 0, i64 %indvars.iv28
  %30 = load i32, ptr %29, align 4, !tbaa !10
  %31 = getelementptr inbounds nuw [4 x i32], ptr %5, i64 0, i64 %indvars.iv28
  %32 = load i32, ptr %31, align 4, !tbaa !10
  %33 = add i32 %32, -1
  %or.cond.i.us = icmp ult i32 %33, 2
  br i1 %or.cond.i.us, label %34, label %37

34:                                               ; preds = %av_image_fill_max_pixsteps.exit.preheader.split.split.us
  %35 = load i8, ptr %26, align 1, !tbaa !18
  %36 = zext i8 %35 to i32
  br label %37

37:                                               ; preds = %34, %av_image_fill_max_pixsteps.exit.preheader.split.split.us
  %38 = phi i32 [ %36, %34 ], [ 0, %av_image_fill_max_pixsteps.exit.preheader.split.split.us ]
  %39 = shl nuw i32 1, %38
  %40 = add i32 %27, %39
  %41 = ashr i32 %40, %38
  %.not.i.us = icmp eq i32 %41, 0
  br i1 %.not.i.us, label %image_get_linesize.exit.us, label %42

42:                                               ; preds = %37
  %43 = sdiv i32 2147483647, %41
  %44 = icmp sgt i32 %30, %43
  br i1 %44, label %image_get_linesize.exit.thread, label %image_get_linesize.exit.us

image_get_linesize.exit.us:                       ; preds = %42, %37
  %45 = mul nsw i32 %41, %30
  %46 = icmp slt i32 %45, 0
  br i1 %46, label %image_get_linesize.exit.thread, label %av_image_fill_max_pixsteps.exit.us

av_image_fill_max_pixsteps.exit.us:               ; preds = %image_get_linesize.exit.us
  %47 = getelementptr inbounds nuw i32, ptr %0, i64 %indvars.iv28
  store i32 %45, ptr %47, align 4, !tbaa !10
  %indvars.iv.next29 = add nuw nsw i64 %indvars.iv28, 1
  %exitcond31.not = icmp eq i64 %indvars.iv.next29, 4
  br i1 %exitcond31.not, label %image_get_linesize.exit.thread, label %av_image_fill_max_pixsteps.exit.preheader.split.split.us, !llvm.loop !19

av_image_fill_max_pixsteps.exit.preheader.split.split: ; preds = %av_image_fill_max_pixsteps.exit.preheader.split, %av_image_fill_max_pixsteps.exit
  %indvars.iv = phi i64 [ %indvars.iv.next, %av_image_fill_max_pixsteps.exit ], [ 0, %av_image_fill_max_pixsteps.exit.preheader.split ]
  %48 = getelementptr inbounds nuw [4 x i32], ptr %4, i64 0, i64 %indvars.iv
  %49 = load i32, ptr %48, align 4, !tbaa !10
  %50 = getelementptr inbounds nuw [4 x i32], ptr %5, i64 0, i64 %indvars.iv
  %51 = load i32, ptr %50, align 4, !tbaa !10
  %52 = add i32 %51, -1
  %or.cond.i = icmp ult i32 %52, 2
  br i1 %or.cond.i, label %53, label %56

53:                                               ; preds = %av_image_fill_max_pixsteps.exit.preheader.split.split
  %54 = load i8, ptr %26, align 1, !tbaa !18
  %55 = zext i8 %54 to i32
  br label %56

56:                                               ; preds = %53, %av_image_fill_max_pixsteps.exit.preheader.split.split
  %57 = phi i32 [ %55, %53 ], [ 0, %av_image_fill_max_pixsteps.exit.preheader.split.split ]
  %58 = shl nuw i32 1, %57
  %59 = add i32 %27, %58
  %60 = ashr i32 %59, %57
  %.not.i = icmp eq i32 %60, 0
  br i1 %.not.i, label %image_get_linesize.exit, label %61

61:                                               ; preds = %56
  %62 = sdiv i32 2147483647, %60
  %63 = icmp sgt i32 %49, %62
  br i1 %63, label %image_get_linesize.exit.thread, label %image_get_linesize.exit

image_get_linesize.exit:                          ; preds = %56, %61
  %64 = mul nsw i32 %60, %49
  %65 = add nsw i32 %64, 7
  %66 = ashr i32 %65, 3
  %67 = icmp slt i32 %66, 0
  br i1 %67, label %image_get_linesize.exit.thread, label %av_image_fill_max_pixsteps.exit

av_image_fill_max_pixsteps.exit:                  ; preds = %image_get_linesize.exit
  %68 = getelementptr inbounds nuw i32, ptr %0, i64 %indvars.iv
  store i32 %66, ptr %68, align 4, !tbaa !10
  %indvars.iv.next = add nuw nsw i64 %indvars.iv, 1
  %exitcond.not = icmp eq i64 %indvars.iv.next, 4
  br i1 %exitcond.not, label %image_get_linesize.exit.thread, label %av_image_fill_max_pixsteps.exit.preheader.split.split, !llvm.loop !19

image_get_linesize.exit.thread:                   ; preds = %61, %av_image_fill_max_pixsteps.exit, %image_get_linesize.exit, %42, %av_image_fill_max_pixsteps.exit.us, %image_get_linesize.exit.us, %av_image_fill_max_pixsteps.exit.preheader, %3, %7
  %.0 = phi i32 [ -22, %7 ], [ -22, %3 ], [ -22, %av_image_fill_max_pixsteps.exit.preheader ], [ -22, %42 ], [ 0, %av_image_fill_max_pixsteps.exit.us ], [ %45, %image_get_linesize.exit.us ], [ -22, %61 ], [ 0, %av_image_fill_max_pixsteps.exit ], [ %66, %image_get_linesize.exit ]
  call void @llvm.lifetime.end.p0(i64 16, ptr nonnull %5) #11
  call void @llvm.lifetime.end.p0(i64 16, ptr nonnull %4) #11
  ret i32 %.0
}